; Function Attrs: mustprogress nofree nounwind willreturn memory(write, argmem: none, inaccessiblemem: readwrite) uwtable
define noalias noundef ptr @Int_ManAlloc() local_unnamed_addr #0 {
  %calloc = tail call dereferenceable_or_null(240) ptr @calloc(i64 1, i64 240)
  %1 = getelementptr inbounds nuw i8, ptr %calloc, i64 212
  store i32 65536, ptr %1, align 4, !tbaa !3
  %2 = tail call noalias dereferenceable_or_null(262144) ptr @malloc(i64 noundef 262144) #17
  %3 = getelementptr inbounds nuw i8, ptr %calloc, i64 200
  store ptr %2, ptr %3, align 8, !tbaa !15
  %4 = getelementptr inbounds nuw i8, ptr %calloc, i64 80
  store i32 1, ptr %4, align 8, !tbaa !16
  ret ptr %calloc
}